target datalayout = "e-m:e-p270:32:32-p271:32:32-p272:64:64-i64:64-i128:128-f80:128-n8:16:32:64-S128"
target triple = "x86_64-unknown-linux-gnu"

@log_per_thread = internal global i8 0, align 1
@.str = private unnamed_addr constant [19 x i8] c"../qemu/util/log.c\00", align 1
@global_file = internal global ptr null, align 8
@__func__.qemu_log_separate = private unnamed_addr constant [18 x i8] c"qemu_log_separate\00", align 1
@stderr = external global ptr, align 8

; Function Attrs: nounwind sspstrong uwtable
define dso_local zeroext i1 @qemu_log_separate() #0 {
entry:
  %retval = alloca i1, align 1
  %logfile = alloca ptr, align 8
  %tmp = alloca ptr, align 8
  %atomic-temp = alloca ptr, align 8
  %0 = load i8, ptr @log_per_thread, align 1
  %tobool = trunc i8 %0 to i1
  br i1 %tobool, label %if.then, label %if.else

if.then:                                          ; preds = %entry
  store i1 true, ptr %retval, align 1
  br label %return

if.else:                                          ; preds = %entry
  br label %while.cond

while.cond:                                       ; preds = %do.end, %if.else
  br i1 false, label %while.body, label %while.end

while.body:                                       ; preds = %while.cond
  br label %do.body

do.body:                                          ; preds = %while.body
  call void @g_assertion_message_expr(ptr noundef null, ptr noundef @.str, i32 noundef 63, ptr noundef @__func__.qemu_log_separate, ptr noundef null) #10
  unreachable

do.end:                                           ; No predecessors!
  br label %while.cond

while.end:                                        ; preds = %while.cond
  %1 = load atomic i64, ptr @global_file monotonic, align 8
  store i64 %1, ptr %atomic-temp, align 8
  %2 = load ptr, ptr %atomic-temp, align 8
  store ptr %2, ptr %tmp, align 8
  %3 = load ptr, ptr %tmp, align 8
  store ptr %3, ptr %logfile, align 8
  %4 = load ptr, ptr %logfile, align 8
  %tobool1 = icmp ne ptr %4, null
  br i1 %tobool1, label %land.rhs, label %land.end

land.rhs:                                         ; preds = %while.end
  %5 = load ptr, ptr %logfile, align 8
  %6 = load ptr, ptr @stderr, align 8
  %cmp = icmp ne ptr %5, %6
  br label %land.end

land.end:                                         ; preds = %land.rhs, %while.end
  %7 = phi i1 [ false, %while.end ], [ %cmp, %land.rhs ]
  store i1 %7, ptr %retval, align 1
  br label %return

return:                                           ; preds = %land.end, %if.then
  %8 = load i1, ptr %retval, align 1
  ret i1 %8
}