; Function Attrs: mustprogress nofree norecurse nounwind sspstrong willreturn memory(readwrite, argmem: none, inaccessiblemem: none) uwtable
define dso_local zeroext i1 @qemu_log_separate() local_unnamed_addr #0 {
entry:
  %.b2 = load i1, ptr @log_per_thread, align 1
  br i1 %.b2, label %return, label %while.end

while.end:                                        ; preds = %entry
  %0 = load atomic i64, ptr @global_file monotonic, align 8
  %1 = inttoptr i64 %0 to ptr
  %tobool1 = icmp ne i64 %0, 0
  %2 = load ptr, ptr @stderr, align 8
  %cmp = icmp ne ptr %2, %1
  %3 = select i1 %tobool1, i1 %cmp, i1 false
  br label %return

return:                                           ; preds = %entry, %while.end
  %retval.0 = phi i1 [ %3, %while.end ], [ true, %entry ]
  ret i1 %retval.0
}